target datalayout = "e-m:e-p270:32:32-p271:32:32-p272:64:64-i64:64-i128:128-f80:128-n8:16:32:64-S128"
target triple = "x86_64-pc-linux-gnu"

%union.run_on_cpu_data = type { i64 }

; Function Attrs: nounwind sspstrong uwtable
define internal void @do_gdb_handlesig(ptr noundef %0, i64 %1) #0 {
  %3 = alloca %union.run_on_cpu_data, align 8
  %4 = alloca ptr, align 8
  %5 = alloca i32, align 4
  %6 = getelementptr inbounds nuw %union.run_on_cpu_data, ptr %3, i32 0, i32 0
  store i64 %1, ptr %6, align 8
  store ptr %0, ptr %4, align 8
  call void @llvm.lifetime.start.p0(i64 4, ptr %5) #14
  store i32 0, ptr %5, align 4, !annotation !4
  %7 = load ptr, ptr %4, align 8
  %8 = call i32 @gdb_handlesig(ptr noundef %7, i32 noundef 0, ptr noundef null, ptr noundef null, i32 noundef 0)
  %9 = call i32 @target_to_host_signal(i32 noundef %8)
  store i32 %9, ptr %5, align 4
  %10 = load i32, ptr %5, align 4
  %11 = icmp sge i32 %10, 1
  br i1 %11, label %12, label %20

12:                                               ; preds = %2
  %13 = load i32, ptr %5, align 4
  %14 = icmp slt i32 %13, 65
  br i1 %14, label %15, label %20

15:                                               ; preds = %12
  %16 = load ptr, ptr %4, align 8
  %17 = call i32 @gdb_get_cpu_index(ptr noundef %16)
  %18 = load i32, ptr %5, align 4
  %19 = call i32 @qemu_kill_thread(i32 noundef %17, i32 noundef %18)
  br label %20

20:                                               ; preds = %15, %12, %2
  call void @llvm.lifetime.end.p0(i64 4, ptr %5) #14
  ret void
}