; Function Attrs: nounwind sspstrong uwtable
define internal void @do_gdb_handlesig(ptr noundef %0, i64 %1) #0 {
  %3 = tail call i32 @gdb_handlesig(ptr noundef %0, i32 noundef 0, ptr noundef null, ptr noundef null, i32 noundef 0)
  %4 = tail call i32 @target_to_host_signal(i32 noundef %3) #16
  %5 = add i32 %4, -1
  %or.cond = icmp ult i32 %5, 64
  br i1 %or.cond, label %6, label %9

6:                                                ; preds = %2
  %7 = tail call i32 @gdb_get_cpu_index(ptr noundef %0) #16
  %8 = tail call i32 @qemu_kill_thread(i32 noundef %7, i32 noundef %4) #16
  br label %9

9:                                                ; preds = %6, %2
  ret void
}